; Function Attrs: nounwind uwtable
define ptr @l_Lean_Meta_Grind_Arith_CommRing_Null_NullCertExt_toNullCert___boxed(ptr noundef %0) local_unnamed_addr #1 {
  %2 = getelementptr inbounds nuw i8, ptr %0, i64 16
  %3 = load ptr, ptr %2, align 8, !tbaa !11
  %4 = getelementptr i8, ptr %3, i64 8
  %.val.i = load i64, ptr %4, align 8, !tbaa !15
  %5 = shl i64 %.val.i, 1
  %6 = or disjoint i64 %5, 1
  %7 = inttoptr i64 %6 to ptr
  %8 = tail call ptr @l_Lean_Meta_Grind_Arith_CommRing_Null_NullCertExt_toNullCert_go(ptr noundef readonly %0, ptr noundef nonnull %7, ptr noundef nonnull inttoptr (i64 1 to ptr), ptr nonnull poison)
  %9 = ptrtoint ptr %0 to i64
  %10 = and i64 %9, 1
  %.not = icmp eq i64 %10, 0
  br i1 %.not, label %11, label %lean_dec.exit

11:                                               ; preds = %1
  %12 = load i32, ptr %0, align 4, !tbaa !6
  %13 = icmp sgt i32 %12, 1
  br i1 %13, label %14, label %16, !prof !5

14:                                               ; preds = %11
  %15 = add nsw i32 %12, -1
  store i32 %15, ptr %0, align 4, !tbaa !6
  br label %lean_dec.exit

16:                                               ; preds = %11
  %.not.i = icmp eq i32 %12, 0
  br i1 %.not.i, label %lean_dec.exit, label %17

17:                                               ; preds = %16
  tail call void @lean_dec_ref_cold(ptr noundef nonnull %0) #6
  br label %lean_dec.exit

lean_dec.exit:                                    ; preds = %17, %16, %14, %1
  ret ptr %8
}